; Function Attrs: nounwind uwtable
define dso_local i32 @grep_buffer(ptr noundef %0, ptr noundef %1, i64 noundef %2) local_unnamed_addr #0 {
  %4 = alloca %struct.grep_source, align 8
  call void @llvm.lifetime.start.p0(i64 64, ptr nonnull %4) #18
  %5 = getelementptr inbounds nuw i8, ptr %4, i64 8
  store i32 2, ptr %5, align 8, !tbaa !117
  store ptr null, ptr %4, align 8, !tbaa !77
  %6 = getelementptr inbounds nuw i8, ptr %4, i64 48
  store ptr null, ptr %6, align 8, !tbaa !107
  %7 = getelementptr inbounds nuw i8, ptr %4, i64 32
  store ptr %1, ptr %7, align 8, !tbaa !119
  %8 = getelementptr inbounds nuw i8, ptr %4, i64 40
  store i64 %2, ptr %8, align 8, !tbaa !120
  %9 = getelementptr inbounds nuw i8, ptr %4, i64 56
  store ptr null, ptr %9, align 8, !tbaa !106
  %10 = getelementptr inbounds nuw i8, ptr %4, i64 16
  store ptr null, ptr %10, align 8, !tbaa !118
  %11 = call i32 @grep_source(ptr noundef %0, ptr noundef nonnull %4)
  %12 = load ptr, ptr %4, align 8, !tbaa !77
  call void @free(ptr noundef %12) #18
  store ptr null, ptr %4, align 8, !tbaa !77
  %13 = load ptr, ptr %6, align 8, !tbaa !107
  call void @free(ptr noundef %13) #18
  store ptr null, ptr %6, align 8, !tbaa !107
  %14 = load ptr, ptr %10, align 8, !tbaa !118
  call void @free(ptr noundef %14) #18
  store ptr null, ptr %10, align 8, !tbaa !118
  %15 = load i32, ptr %5, align 8, !tbaa !117
  %switch.i.i = icmp ult i32 %15, 2
  br i1 %switch.i.i, label %16, label %grep_source_clear.exit

16:                                               ; preds = %3
  %17 = load ptr, ptr %7, align 8, !tbaa !119
  call void @free(ptr noundef %17) #18
  br label %grep_source_clear.exit

grep_source_clear.exit:                           ; preds = %3, %16
  call void @llvm.lifetime.end.p0(i64 64, ptr nonnull %4) #18
  ret i32 %11
}